; Function Attrs: mustprogress nofree norecurse nosync nounwind willreturn memory(read, inaccessiblemem: none) uwtable
define hidden range(i64 0, 9223372032559808513) i64 @_ZN6hermes2vm8JSString23_getOwnIndexedRangeImplEPNS0_8JSObjectERNS0_7RuntimeE(ptr noundef readonly captures(none) %selfObj, ptr noundef nonnull align 8 dereferenceable(9832) %runtime) #0 align 2 {
entry:
  %primitiveValue_.i = getelementptr inbounds nuw i8, ptr %selfObj, i64 20
  %agg.tmp.sroa.0.0.copyload.i.i.i = load i32, ptr %primitiveValue_.i, align 4
  %cmp.i.not.i.i.i.i.i = icmp eq i32 %agg.tmp.sroa.0.0.copyload.i.i.i, 0
  %0 = ptrtoint ptr %runtime to i64
  %conv.i.i.i.i.i.i = zext i32 %agg.tmp.sroa.0.0.copyload.i.i.i to i64
  %add.i.i.i.i.i.i = add i64 %conv.i.i.i.i.i.i, %0
  %1 = inttoptr i64 %add.i.i.i.i.i.i to ptr
  %cond.i.i.i.i.i = select i1 %cmp.i.not.i.i.i.i.i, ptr null, ptr %1
  %lengthAndUniquedFlag_.i = getelementptr inbounds nuw i8, ptr %cond.i.i.i.i.i, i64 4
  %2 = load i32, ptr %lengthAndUniquedFlag_.i, align 4
  %and.i = and i32 %2, 2147483647
  %retval.sroa.2.0.insert.ext = zext nneg i32 %and.i to i64
  %retval.sroa.2.0.insert.shift = shl nuw nsw i64 %retval.sroa.2.0.insert.ext, 32
  ret i64 %retval.sroa.2.0.insert.shift
}